; Function Attrs: mustprogress uwtable
define internal noundef nonnull ptr @_ZN7testing8internal15TestFactoryImplIN12_GLOBAL__N_145DiscreteDistributionTypeTest_Constructor_TestItEEE10CreateTestEv(ptr nonnull readnone align 8 captures(none) %0) unnamed_addr #5 align 2 personality ptr @__gxx_personality_v0 {
  %2 = tail call noalias noundef nonnull dereferenceable(16) ptr @_Znwm(i64 noundef 16) #28
  invoke void @_ZN7testing4TestC2Ev(ptr noundef nonnull align 8 dereferenceable(16) %2)
          to label %3 unwind label %4

3:                                                ; preds = %1
  store ptr getelementptr inbounds nuw inrange(-16, 48) (i8, ptr @_ZTVN12_GLOBAL__N_145DiscreteDistributionTypeTest_Constructor_TestItEE, i64 16), ptr %2, align 8, !tbaa !21
  ret ptr %2

4:                                                ; preds = %1
  %5 = landingpad { ptr, i32 }
          cleanup
  tail call void @_ZdlPvm(ptr noundef nonnull %2, i64 noundef 16) #25
  resume { ptr, i32 } %5
}